target datalayout = "e-m:e-p270:32:32-p271:32:32-p272:64:64-i64:64-i128:128-f80:128-n8:16:32:64-S128"
target triple = "x86_64-pc-linux-gnu"

%class.ErrorHandler = type <{ i32, i32, i8, i8, i8, i8, i8, i8, [2 x i8] }>
%class.Archive = type <{ %class.File, %class.CryptData, %class.ComprDataIO, i8, [7 x i8], ptr, %class.RarTime, i32, i32, i8, [7 x i8], %class.QuickOpen, i8, [3 x i8], %struct.BaseBlock, %struct.MarkHeader, [4 x i8], %struct.MainHeader, %struct.CryptHeader, [4 x i8], %struct.FileHeader, %struct.EndArcHeader, %struct.SubBlockHeader, [4 x i8], %struct.FileHeader, %struct.CommentHeader, %struct.ProtectHeader, %struct.EAHeader, %struct.StreamHeader, [4 x i8], i64, i64, i32, i8, i8, i8, i8, i8, i8, i8, i8, i8, [3 x i8], i64, i8, i8, [16 x i8], i8, i8, i32, i64, i64, i64, i8, [3 x i8], [2048 x i32], [4 x i8] }>
%class.File = type { ptr, i64, i8, i32, i8, i8, i32, i8, i8, i8, i8, i8, i64, i8, [2048 x i32], i32, ptr }
%class.CryptData = type { [4 x %"struct.CryptData::KDF3CacheItem"], i32, [4 x i8], [4 x %"struct.CryptData::KDF5CacheItem"], i32, i32, %class.Rijndael, [256 x i32], [256 x i8], [4 x i32], [3 x i8], [4 x i16], [4 x i8] }
%"struct.CryptData::KDF3CacheItem" = type { %class.SecPassword, [8 x i8], [16 x i8], [16 x i8], i8, [7 x i8] }
%class.SecPassword = type <{ %"class.std::vector", i8, [7 x i8] }>
%"class.std::vector" = type { %"struct.std::_Vector_base" }
%"struct.std::_Vector_base" = type { %"struct.std::_Vector_base<wchar_t, std::allocator<wchar_t>>::_Vector_impl" }
%"struct.std::_Vector_base<wchar_t, std::allocator<wchar_t>>::_Vector_impl" = type { %"struct.std::_Vector_base<wchar_t, std::allocator<wchar_t>>::_Vector_impl_data" }
%"struct.std::_Vector_base<wchar_t, std::allocator<wchar_t>>::_Vector_impl_data" = type { ptr, ptr, ptr }
%"struct.CryptData::KDF5CacheItem" = type { %class.SecPassword, [16 x i8], [32 x i8], i32, [32 x i8], [32 x i8], [4 x i8] }
%class.Rijndael = type { i8, i32, [16 x i8], [15 x [4 x [4 x i8]]] }
%class.ComprDataIO = type <{ i8, [7 x i8], i64, ptr, i8, [7 x i8], i64, ptr, i64, ptr, i64, i64, i8, i8, i8, i8, [4 x i8], ptr, ptr, ptr, ptr, ptr, ptr, ptr, i32, i32, i8, i8, i8, [5 x i8], i64, i64, i64, i64, i64, i64, i64, %class.DataHash, %class.DataHash, %class.DataHash, i8, i8, [6 x i8] }>
%class.DataHash = type { i32, i32, ptr }
%class.RarTime = type { i64 }
%class.QuickOpen = type <{ ptr, i8, [7 x i8], ptr, ptr, ptr, i64, %class.CryptData, i8, [7 x i8], i64, i64, i64, i64, i64, i64, %class.Array, i64, i64, i8, [7 x i8] }>
%class.Array = type { ptr, i64, i64, i64 }
%struct.BaseBlock = type { i32, i32, i32, i32, i8 }
%struct.MarkHeader = type { [8 x i8], i32 }
%struct.MainHeader = type { %struct.BaseBlock, i16, i32, i8, i8, i8, i64, i64, i64, i64, i64, %"class.std::__cxx11::basic_string", %class.RarTime }
%"class.std::__cxx11::basic_string" = type { %"struct.std::__cxx11::basic_string<wchar_t>::_Alloc_hider", i64, %union.anon }
%"struct.std::__cxx11::basic_string<wchar_t>::_Alloc_hider" = type { ptr }
%union.anon = type { i64, [8 x i8] }
%struct.CryptHeader = type { %struct.BaseBlock, i8, i32, [16 x i8], [8 x i8] }
%struct.EndArcHeader = type { %struct.BaseBlock, i32, i32, i8, i8, i8, i8 }
%struct.SubBlockHeader = type <{ %struct.BlockHeader, i16, i8, i8 }>
%struct.BlockHeader = type { %struct.BaseBlock, i32 }
%struct.FileHeader = type { %struct.BlockHeader, i8, i32, i8, %union.anon.0, [2048 x i32], %class.Array, %class.RarTime, %class.RarTime, %class.RarTime, i64, i64, i64, %struct.HashValue, i32, i8, i8, i8, i8, i32, i8, [16 x i8], [16 x i8], i8, [8 x i8], i8, [32 x i8], i32, i8, i8, i8, i8, i64, i8, i8, i8, i32, i32, [2048 x i32], i8, i8, i8, i8, [256 x i8], [256 x i8], i32, i32 }
%union.anon.0 = type { i32 }
%struct.HashValue = type { i32, %union.anon.1 }
%union.anon.1 = type { i32, [28 x i8] }
%struct.CommentHeader = type <{ %struct.BaseBlock, i16, i8, i8, i16, [2 x i8] }>
%struct.ProtectHeader = type { %struct.BlockHeader, i8, i16, i32, [8 x i8] }
%struct.EAHeader = type { %struct.SubBlockHeader.base, i32, i8, i8, i32 }
%struct.SubBlockHeader.base = type <{ %struct.BlockHeader, i16, i8 }>
%struct.StreamHeader = type <{ %struct.SubBlockHeader.base, i8, i32, i8, i8, [2 x i8], i32, i16, [260 x i8], [2 x i8] }>
%class.CommandData = type { %class.RAROptions, i8, i8, i32, i8, [2064 x i32], [2048 x i32], %class.StringList, %class.StringList, %class.StringList, %class.StringList, %class.StringList, %class.SecPassword, %"class.std::vector.3" }
%class.RAROptions = type { i32, i32, i8, i8, i8, i64, [2048 x i32], [2048 x i32], i32, i8, [2048 x i32], [2048 x i32], i32, i32, i32, i32, [2048 x i32], [2048 x i32], i8, i8, i8, [2048 x i32], i32, i32, i32, i32, i32, i32, i32, i32, i8, i8, i8, i8, i8, i32, i32, i8, i8, i8, i8, i8, i32, i32, i64, i32, i8, i8, i8, i32, i32, i8, i8, i8, i8, i32, i32, i8, i8, i8, i8, [128 x i32], [128 x i32], i8, i8, i8, i8, i8, %class.RarTime, %class.RarTime, %class.RarTime, i8, i8, i8, %class.RarTime, %class.RarTime, %class.RarTime, i8, i8, i8, i64, i64, i8, i8, i8, [16 x %struct.FilterMode], [2048 x i32], i32, i32, i32, i32, i32, i32, i8, [2048 x i32], i32, [2048 x i32], i32, i32, i64, ptr, ptr, ptr }
%struct.FilterMode = type { i32, i32, i32 }
%class.StringList = type { %class.Array.2, i64, i64, [16 x i64], i64 }
%class.Array.2 = type { ptr, i64, i64, i64 }
%"class.std::vector.3" = type { %"struct.std::_Vector_base.4" }
%"struct.std::_Vector_base.4" = type { %"struct.std::_Vector_base<long, std::allocator<long>>::_Vector_impl" }
%"struct.std::_Vector_base<long, std::allocator<long>>::_Vector_impl" = type { %"struct.std::_Vector_base<long, std::allocator<long>>::_Vector_impl_data" }
%"struct.std::_Vector_base<long, std::allocator<long>>::_Vector_impl_data" = type { ptr, ptr, ptr }

@ErrHandler = external global %class.ErrorHandler, align 4

; Function Attrs: mustprogress nounwind uwtable
define linkonce_odr noundef zeroext i1 @_ZN11SecPassword5IsSetEv(ptr noundef nonnull align 8 dereferenceable(25) %0) #1 comdat align 2 {
  %2 = alloca ptr, align 8
  store ptr %0, ptr %2, align 8
  %3 = load ptr, ptr %2, align 8
  %4 = getelementptr inbounds %class.SecPassword, ptr %3, i32 0, i32 1
  %5 = load i8, ptr %4, align 8
  %6 = trunc i8 %5 to i1
  ret i1 %6
}

; Function Attrs: mustprogress uwtable
define void @_ZN7Archive18RequestArcPasswordEP16RarCheckPassword(ptr noundef nonnull align 8 dereferenceable(57108) %0, ptr noundef %1) #0 align 2 {
  %3 = alloca ptr, align 8
  %4 = alloca ptr, align 8
  %5 = alloca [512 x i32], align 16
  %6 = alloca [512 x i8], align 16
  store ptr %0, ptr %3, align 8
  store ptr %1, ptr %4, align 8
  %7 = load ptr, ptr %3, align 8
  %8 = getelementptr inbounds %class.Archive, ptr %7, i32 0, i32 5
  %9 = load ptr, ptr %8, align 8
  %10 = getelementptr inbounds %class.CommandData, ptr %9, i32 0, i32 12
  %11 = call noundef zeroext i1 @_ZN11SecPassword5IsSetEv(ptr noundef nonnull align 8 dereferenceable(25) %10)
  br i1 %11, label %82, label %12

12:                                               ; preds = %2
  %13 = getelementptr inbounds %class.Archive, ptr %7, i32 0, i32 5
  %14 = load ptr, ptr %13, align 8
  %15 = getelementptr inbounds %class.RAROptions, ptr %14, i32 0, i32 100
  %16 = load ptr, ptr %15, align 8
  %17 = icmp ne ptr %16, null
  br i1 %17, label %18, label %65

18:                                               ; preds = %12
  %19 = getelementptr inbounds [512 x i32], ptr %5, i64 0, i64 0
  store i32 0, ptr %19, align 16
  %20 = getelementptr inbounds %class.Archive, ptr %7, i32 0, i32 5
  %21 = load ptr, ptr %20, align 8
  %22 = getelementptr inbounds %class.RAROptions, ptr %21, i32 0, i32 100
  %23 = load ptr, ptr %22, align 8
  %24 = getelementptr inbounds %class.Archive, ptr %7, i32 0, i32 5
  %25 = load ptr, ptr %24, align 8
  %26 = getelementptr inbounds %class.RAROptions, ptr %25, i32 0, i32 99
  %27 = load i64, ptr %26, align 8
  %28 = getelementptr inbounds [512 x i32], ptr %5, i64 0, i64 0
  %29 = ptrtoint ptr %28 to i64
  %30 = call noundef i32 %23(i32 noundef 4, i64 noundef %27, i64 noundef %29, i64 noundef 512)
  %31 = icmp eq i32 %30, -1
  br i1 %31, label %32, label %34

32:                                               ; preds = %18
  %33 = getelementptr inbounds [512 x i32], ptr %5, i64 0, i64 0
  store i32 0, ptr %33, align 16
  br label %34

34:                                               ; preds = %32, %18
  %35 = getelementptr inbounds [512 x i32], ptr %5, i64 0, i64 0
  %36 = load i32, ptr %35, align 16
  %37 = icmp eq i32 %36, 0
  br i1 %37, label %38, label %59

38:                                               ; preds = %34
  %39 = getelementptr inbounds [512 x i8], ptr %6, i64 0, i64 0
  store i8 0, ptr %39, align 16
  %40 = getelementptr inbounds %class.Archive, ptr %7, i32 0, i32 5
  %41 = load ptr, ptr %40, align 8
  %42 = getelementptr inbounds %class.RAROptions, ptr %41, i32 0, i32 100
  %43 = load ptr, ptr %42, align 8
  %44 = getelementptr inbounds %class.Archive, ptr %7, i32 0, i32 5
  %45 = load ptr, ptr %44, align 8
  %46 = getelementptr inbounds %class.RAROptions, ptr %45, i32 0, i32 99
  %47 = load i64, ptr %46, align 8
  %48 = getelementptr inbounds [512 x i8], ptr %6, i64 0, i64 0
  %49 = ptrtoint ptr %48 to i64
  %50 = call noundef i32 %43(i32 noundef 2, i64 noundef %47, i64 noundef %49, i64 noundef 512)
  %51 = icmp eq i32 %50, -1
  br i1 %51, label %52, label %54

52:                                               ; preds = %38
  %53 = getelementptr inbounds [512 x i8], ptr %6, i64 0, i64 0
  store i8 0, ptr %53, align 16
  br label %54

54:                                               ; preds = %52, %38
  %55 = getelementptr inbounds [512 x i8], ptr %6, i64 0, i64 0
  %56 = getelementptr inbounds [512 x i32], ptr %5, i64 0, i64 0
  %57 = call noundef ptr @_Z11GetWideNamePKcPKwPwm(ptr noundef %55, ptr noundef null, ptr noundef %56, i64 noundef 512)
  %58 = getelementptr inbounds [512 x i8], ptr %6, i64 0, i64 0
  call void @_Z9cleandataPvm(ptr noundef %58, i64 noundef 512)
  br label %59

59:                                               ; preds = %54, %34
  %60 = getelementptr inbounds %class.Archive, ptr %7, i32 0, i32 5
  %61 = load ptr, ptr %60, align 8
  %62 = getelementptr inbounds %class.CommandData, ptr %61, i32 0, i32 12
  %63 = getelementptr inbounds [512 x i32], ptr %5, i64 0, i64 0
  call void @_ZN11SecPassword3SetEPKw(ptr noundef nonnull align 8 dereferenceable(25) %62, ptr noundef %63)
  %64 = getelementptr inbounds [512 x i32], ptr %5, i64 0, i64 0
  call void @_Z9cleandataPvm(ptr noundef %64, i64 noundef 2048)
  br label %65

65:                                               ; preds = %59, %12
  %66 = getelementptr inbounds %class.Archive, ptr %7, i32 0, i32 5
  %67 = load ptr, ptr %66, align 8
  %68 = getelementptr inbounds %class.CommandData, ptr %67, i32 0, i32 12
  %69 = call noundef zeroext i1 @_ZN11SecPassword5IsSetEv(ptr noundef nonnull align 8 dereferenceable(25) %68)
  br i1 %69, label %78, label %70

70:                                               ; preds = %65
  %71 = load ptr, ptr %7, align 8
  %72 = getelementptr inbounds ptr, ptr %71, i64 3
  %73 = load ptr, ptr %72, align 8
  %74 = call noundef zeroext i1 %73(ptr noundef nonnull align 8 dereferenceable(8256) %7)
  %75 = getelementptr inbounds %class.Archive, ptr %7, i32 0, i32 5
  %76 = load ptr, ptr %75, align 8
  %77 = getelementptr inbounds %class.RAROptions, ptr %76, i32 0, i32 98
  store i32 22, ptr %77, align 8
  call void @_ZN12ErrorHandler4ExitE8RAR_EXIT(ptr noundef nonnull align 4 dereferenceable(14) @ErrHandler, i32 noundef 255)
  br label %78

78:                                               ; preds = %70, %65
  %79 = getelementptr inbounds %class.Archive, ptr %7, i32 0, i32 5
  %80 = load ptr, ptr %79, align 8
  %81 = getelementptr inbounds %class.RAROptions, ptr %80, i32 0, i32 20
  store i8 1, ptr %81, align 2
  br label %82

82:                                               ; preds = %78, %2
  ret void
}