; Function Attrs: mustprogress uwtable
define void @_ZN7Archive18RequestArcPasswordEP16RarCheckPassword(ptr noundef nonnull align 8 dereferenceable(57108) %0, ptr nocapture readnone %1) local_unnamed_addr #0 align 2 {
  %3 = alloca [512 x i32], align 16
  %4 = alloca [512 x i8], align 16
  %5 = getelementptr inbounds i8, ptr %0, i64 11056
  %6 = load ptr, ptr %5, align 8
  %7 = getelementptr inbounds i8, ptr %6, i64 100872
  %8 = load i8, ptr %7, align 8
  %9 = trunc i8 %8 to i1
  br i1 %9, label %50, label %10

10:                                               ; preds = %2
  %11 = getelementptr inbounds i8, ptr %6, i64 83440
  %12 = load ptr, ptr %11, align 8
  %.not = icmp eq ptr %12, null
  br i1 %.not, label %36, label %13

13:                                               ; preds = %10
  store i32 0, ptr %3, align 16
  %14 = getelementptr inbounds i8, ptr %6, i64 83432
  %15 = load i64, ptr %14, align 8
  %16 = ptrtoint ptr %3 to i64
  %17 = call noundef i32 %12(i32 noundef 4, i64 noundef %15, i64 noundef %16, i64 noundef 512)
  %18 = icmp eq i32 %17, -1
  br i1 %18, label %.thread, label %19

.thread:                                          ; preds = %13
  store i32 0, ptr %3, align 16
  br label %21

19:                                               ; preds = %13
  %.pr = load i32, ptr %3, align 16
  %20 = icmp eq i32 %.pr, 0
  br i1 %20, label %21, label %33

21:                                               ; preds = %.thread, %19
  store i8 0, ptr %4, align 16
  %22 = load ptr, ptr %5, align 8
  %23 = getelementptr inbounds i8, ptr %22, i64 83440
  %24 = load ptr, ptr %23, align 8
  %25 = getelementptr inbounds i8, ptr %22, i64 83432
  %26 = load i64, ptr %25, align 8
  %27 = ptrtoint ptr %4 to i64
  %28 = call noundef i32 %24(i32 noundef 2, i64 noundef %26, i64 noundef %27, i64 noundef 512)
  %29 = icmp eq i32 %28, -1
  br i1 %29, label %30, label %31

30:                                               ; preds = %21
  store i8 0, ptr %4, align 16
  br label %31

31:                                               ; preds = %30, %21
  %32 = call noundef ptr @_Z11GetWideNamePKcPKwPwm(ptr noundef nonnull %4, ptr noundef null, ptr noundef nonnull %3, i64 noundef 512)
  call void @_Z9cleandataPvm(ptr noundef nonnull %4, i64 noundef 512)
  br label %33

33:                                               ; preds = %31, %19
  %34 = load ptr, ptr %5, align 8
  %35 = getelementptr inbounds i8, ptr %34, i64 100848
  call void @_ZN11SecPassword3SetEPKw(ptr noundef nonnull align 8 dereferenceable(25) %35, ptr noundef nonnull %3)
  call void @_Z9cleandataPvm(ptr noundef nonnull %3, i64 noundef 2048)
  %.pre = load ptr, ptr %5, align 8
  %.phi.trans.insert = getelementptr inbounds i8, ptr %.pre, i64 100872
  %.pre1 = load i8, ptr %.phi.trans.insert, align 8
  br label %36

36:                                               ; preds = %33, %10
  %37 = phi i8 [ %.pre1, %33 ], [ %8, %10 ]
  %38 = phi ptr [ %.pre, %33 ], [ %6, %10 ]
  %39 = trunc i8 %37 to i1
  br i1 %39, label %47, label %40

40:                                               ; preds = %36
  %41 = load ptr, ptr %0, align 8
  %42 = getelementptr inbounds i8, ptr %41, i64 24
  %43 = load ptr, ptr %42, align 8
  %44 = call noundef zeroext i1 %43(ptr noundef nonnull align 8 dereferenceable(8256) %0)
  %45 = load ptr, ptr %5, align 8
  %46 = getelementptr inbounds i8, ptr %45, i64 83424
  store i32 22, ptr %46, align 8
  call void @_ZN12ErrorHandler4ExitE8RAR_EXIT(ptr noundef nonnull align 4 dereferenceable(14) @ErrHandler, i32 noundef 255)
  %.pre2 = load ptr, ptr %5, align 8
  br label %47

47:                                               ; preds = %40, %36
  %48 = phi ptr [ %.pre2, %40 ], [ %38, %36 ]
  %49 = getelementptr inbounds i8, ptr %48, i64 49202
  store i8 1, ptr %49, align 2
  br label %50

50:                                               ; preds = %47, %2
  ret void
}